target datalayout = "e-m:e-p270:32:32-p271:32:32-p272:64:64-i64:64-i128:128-f80:128-n8:16:32:64-S128"
target triple = "x86_64-pc-linux-gnu"

; Function Attrs: nounwind uwtable
define internal void @fcmul_add_c(ptr noundef %0, ptr noundef %1, ptr noundef %2, i64 noundef %3) #1 {
  %5 = alloca ptr, align 8
  %6 = alloca ptr, align 8
  %7 = alloca ptr, align 8
  %8 = alloca i64, align 8
  %9 = alloca i32, align 4
  %10 = alloca float, align 4
  %11 = alloca float, align 4
  %12 = alloca float, align 4
  %13 = alloca float, align 4
  store ptr %0, ptr %5, align 8, !tbaa !95
  store ptr %1, ptr %6, align 8, !tbaa !95
  store ptr %2, ptr %7, align 8, !tbaa !95
  store i64 %3, ptr %8, align 8, !tbaa !77
  call void @llvm.lifetime.start.p0(i64 4, ptr %9) #10
  store i32 0, ptr %9, align 4, !tbaa !40
  br label %14

14:                                               ; preds = %74, %4
  %15 = load i32, ptr %9, align 4, !tbaa !40
  %16 = sext i32 %15 to i64
  %17 = load i64, ptr %8, align 8, !tbaa !77
  %18 = icmp slt i64 %16, %17
  br i1 %18, label %19, label %77

19:                                               ; preds = %14
  call void @llvm.lifetime.start.p0(i64 4, ptr %10) #10
  %20 = load ptr, ptr %7, align 8, !tbaa !95
  %21 = load i32, ptr %9, align 4, !tbaa !40
  %22 = mul nsw i32 2, %21
  %23 = sext i32 %22 to i64
  %24 = getelementptr inbounds float, ptr %20, i64 %23
  %25 = load float, ptr %24, align 4, !tbaa !97
  store float %25, ptr %10, align 4, !tbaa !97
  call void @llvm.lifetime.start.p0(i64 4, ptr %11) #10
  %26 = load ptr, ptr %7, align 8, !tbaa !95
  %27 = load i32, ptr %9, align 4, !tbaa !40
  %28 = mul nsw i32 2, %27
  %29 = add nsw i32 %28, 1
  %30 = sext i32 %29 to i64
  %31 = getelementptr inbounds float, ptr %26, i64 %30
  %32 = load float, ptr %31, align 4, !tbaa !97
  store float %32, ptr %11, align 4, !tbaa !97
  call void @llvm.lifetime.start.p0(i64 4, ptr %12) #10
  %33 = load ptr, ptr %6, align 8, !tbaa !95
  %34 = load i32, ptr %9, align 4, !tbaa !40
  %35 = mul nsw i32 2, %34
  %36 = sext i32 %35 to i64
  %37 = getelementptr inbounds float, ptr %33, i64 %36
  %38 = load float, ptr %37, align 4, !tbaa !97
  store float %38, ptr %12, align 4, !tbaa !97
  call void @llvm.lifetime.start.p0(i64 4, ptr %13) #10
  %39 = load ptr, ptr %6, align 8, !tbaa !95
  %40 = load i32, ptr %9, align 4, !tbaa !40
  %41 = mul nsw i32 2, %40
  %42 = add nsw i32 %41, 1
  %43 = sext i32 %42 to i64
  %44 = getelementptr inbounds float, ptr %39, i64 %43
  %45 = load float, ptr %44, align 4, !tbaa !97
  store float %45, ptr %13, align 4, !tbaa !97
  %46 = load float, ptr %12, align 4, !tbaa !97
  %47 = load float, ptr %10, align 4, !tbaa !97
  %48 = load float, ptr %13, align 4, !tbaa !97
  %49 = load float, ptr %11, align 4, !tbaa !97
  %50 = fmul nsz float %48, %49
  %51 = fneg nsz float %50
  %52 = call nsz float @llvm.fmuladd.f32(float %46, float %47, float %51)
  %53 = load ptr, ptr %5, align 8, !tbaa !95
  %54 = load i32, ptr %9, align 4, !tbaa !40
  %55 = mul nsw i32 2, %54
  %56 = sext i32 %55 to i64
  %57 = getelementptr inbounds float, ptr %53, i64 %56
  %58 = load float, ptr %57, align 4, !tbaa !97
  %59 = fadd nsz float %58, %52
  store float %59, ptr %57, align 4, !tbaa !97
  %60 = load float, ptr %12, align 4, !tbaa !97
  %61 = load float, ptr %11, align 4, !tbaa !97
  %62 = load float, ptr %13, align 4, !tbaa !97
  %63 = load float, ptr %10, align 4, !tbaa !97
  %64 = fmul nsz float %62, %63
  %65 = call nsz float @llvm.fmuladd.f32(float %60, float %61, float %64)
  %66 = load ptr, ptr %5, align 8, !tbaa !95
  %67 = load i32, ptr %9, align 4, !tbaa !40
  %68 = mul nsw i32 2, %67
  %69 = add nsw i32 %68, 1
  %70 = sext i32 %69 to i64
  %71 = getelementptr inbounds float, ptr %66, i64 %70
  %72 = load float, ptr %71, align 4, !tbaa !97
  %73 = fadd nsz float %72, %65
  store float %73, ptr %71, align 4, !tbaa !97
  call void @llvm.lifetime.end.p0(i64 4, ptr %13) #10
  call void @llvm.lifetime.end.p0(i64 4, ptr %12) #10
  call void @llvm.lifetime.end.p0(i64 4, ptr %11) #10
  call void @llvm.lifetime.end.p0(i64 4, ptr %10) #10
  br label %74

74:                                               ; preds = %19
  %75 = load i32, ptr %9, align 4, !tbaa !40
  %76 = add nsw i32 %75, 1
  store i32 %76, ptr %9, align 4, !tbaa !40
  br label %14, !llvm.loop !109

77:                                               ; preds = %14
  %78 = load ptr, ptr %6, align 8, !tbaa !95
  %79 = load i32, ptr %9, align 4, !tbaa !40
  %80 = mul nsw i32 2, %79
  %81 = sext i32 %80 to i64
  %82 = getelementptr inbounds float, ptr %78, i64 %81
  %83 = load float, ptr %82, align 4, !tbaa !97
  %84 = load ptr, ptr %7, align 8, !tbaa !95
  %85 = load i32, ptr %9, align 4, !tbaa !40
  %86 = mul nsw i32 2, %85
  %87 = sext i32 %86 to i64
  %88 = getelementptr inbounds float, ptr %84, i64 %87
  %89 = load float, ptr %88, align 4, !tbaa !97
  %90 = load ptr, ptr %5, align 8, !tbaa !95
  %91 = load i32, ptr %9, align 4, !tbaa !40
  %92 = mul nsw i32 2, %91
  %93 = sext i32 %92 to i64
  %94 = getelementptr inbounds float, ptr %90, i64 %93
  %95 = load float, ptr %94, align 4, !tbaa !97
  %96 = call nsz float @llvm.fmuladd.f32(float %83, float %89, float %95)
  store float %96, ptr %94, align 4, !tbaa !97
  call void @llvm.lifetime.end.p0(i64 4, ptr %9) #10
  ret void
}