; Function Attrs: nofree norecurse nosync nounwind memory(argmem: readwrite) uwtable
define internal void @fcmul_add_c(ptr noundef captures(none) %0, ptr noundef readonly captures(none) %1, ptr noundef readonly captures(none) %2, i64 noundef %3) #6 {
  %5 = icmp sgt i64 %3, 0
  br i1 %5, label %.lr.ph, label %._crit_edge

.lr.ph:                                           ; preds = %4, %.lr.ph
  %indvars.iv = phi i64 [ %indvars.iv.next, %.lr.ph ], [ 0, %4 ]
  %6 = shl nuw nsw i64 %indvars.iv, 1
  %7 = getelementptr inbounds nuw float, ptr %2, i64 %6
  %8 = load float, ptr %7, align 4, !tbaa !119
  %9 = or disjoint i64 %6, 1
  %10 = getelementptr inbounds nuw float, ptr %2, i64 %9
  %11 = load float, ptr %10, align 4, !tbaa !119
  %12 = getelementptr inbounds nuw float, ptr %1, i64 %6
  %13 = load float, ptr %12, align 4, !tbaa !119
  %14 = getelementptr inbounds nuw float, ptr %1, i64 %9
  %15 = load float, ptr %14, align 4, !tbaa !119
  %16 = fneg nsz float %11
  %17 = fmul nsz float %15, %16
  %18 = tail call nsz float @llvm.fmuladd.f32(float %13, float %8, float %17)
  %19 = getelementptr inbounds nuw float, ptr %0, i64 %6
  %20 = load float, ptr %19, align 4, !tbaa !119
  %21 = fadd nsz float %20, %18
  store float %21, ptr %19, align 4, !tbaa !119
  %22 = fmul nsz float %8, %15
  %23 = tail call nsz float @llvm.fmuladd.f32(float %13, float %11, float %22)
  %24 = getelementptr inbounds nuw float, ptr %0, i64 %9
  %25 = load float, ptr %24, align 4, !tbaa !119
  %26 = fadd nsz float %23, %25
  store float %26, ptr %24, align 4, !tbaa !119
  %indvars.iv.next = add nuw nsw i64 %indvars.iv, 1
  %exitcond.not = icmp eq i64 %indvars.iv.next, %3
  br i1 %exitcond.not, label %._crit_edge.loopexit, label %.lr.ph, !llvm.loop !156

._crit_edge.loopexit:                             ; preds = %.lr.ph
  %27 = shl nuw i64 %3, 1
  %28 = and i64 %27, 4294967294
  br label %._crit_edge

._crit_edge:                                      ; preds = %._crit_edge.loopexit, %4
  %.0.lcssa = phi i64 [ 0, %4 ], [ %28, %._crit_edge.loopexit ]
  %29 = getelementptr inbounds nuw float, ptr %1, i64 %.0.lcssa
  %30 = load float, ptr %29, align 4, !tbaa !119
  %31 = getelementptr inbounds nuw float, ptr %2, i64 %.0.lcssa
  %32 = load float, ptr %31, align 4, !tbaa !119
  %33 = getelementptr inbounds nuw float, ptr %0, i64 %.0.lcssa
  %34 = load float, ptr %33, align 4, !tbaa !119
  %35 = tail call nsz float @llvm.fmuladd.f32(float %30, float %32, float %34)
  store float %35, ptr %33, align 4, !tbaa !119
  ret void
}